; Function Attrs: mustprogress nounwind uwtable
define internal fastcc noundef zeroext i1 @_ZN12_GLOBAL__N_119SCEVDbgValueBuilder18pushArithmeticExprEPKN4llvm19SCEVCommutativeExprEm(ptr noundef nonnull align 8 dereferenceable(96) %0, ptr nocapture noundef readonly %1, i64 noundef %2) unnamed_addr #0 align 2 {
  %4 = getelementptr inbounds nuw i8, ptr %1, i64 32
  %5 = load ptr, ptr %4, align 8
  %6 = getelementptr inbounds nuw i8, ptr %1, i64 40
  %7 = load i64, ptr %6, align 8
  %8 = getelementptr inbounds ptr, ptr %5, i64 %7
  %.not17 = icmp eq i64 %7, 0
  br i1 %.not17, label %._crit_edge, label %.lr.ph

.lr.ph:                                           ; preds = %3
  %9 = getelementptr inbounds i8, ptr %0, i64 16
  br label %10

10:                                               ; preds = %.lr.ph, %24
  %.020 = phi i1 [ true, %.lr.ph ], [ %13, %24 ]
  %.01319 = phi i32 [ 0, %.lr.ph ], [ %25, %24 ]
  %.01418 = phi ptr [ %5, %.lr.ph ], [ %26, %24 ]
  %11 = load ptr, ptr %.01418, align 8
  %12 = tail call fastcc noundef zeroext i1 @_ZN12_GLOBAL__N_119SCEVDbgValueBuilder8pushSCEVEPKN4llvm4SCEVE(ptr noundef nonnull align 8 dereferenceable(96) %0, ptr noundef %11)
  %13 = and i1 %.020, %12
  %.not15 = icmp eq i32 %.01319, 0
  br i1 %.not15, label %24, label %14

14:                                               ; preds = %10
  %15 = tail call noundef i64 @_ZNK4llvm15SmallVectorBaseIjE4sizeEv(ptr noundef nonnull align 8 dereferenceable(16) %0) #21
  %16 = add i64 %15, 1
  %17 = tail call noundef i64 @_ZNK4llvm15SmallVectorBaseIjE8capacityEv(ptr noundef nonnull align 8 dereferenceable(16) %0) #21
  %.not.i.i.i.i = icmp ugt i64 %16, %17
  br i1 %.not.i.i.i.i, label %18, label %_ZN12_GLOBAL__N_119SCEVDbgValueBuilder12pushOperatorEm.exit

18:                                               ; preds = %14
  tail call void @_ZN4llvm15SmallVectorBaseIjE8grow_podEPvmm(ptr noundef nonnull align 8 dereferenceable(16) %0, ptr noundef nonnull %9, i64 noundef %16, i64 noundef 8) #21
  br label %_ZN12_GLOBAL__N_119SCEVDbgValueBuilder12pushOperatorEm.exit

_ZN12_GLOBAL__N_119SCEVDbgValueBuilder12pushOperatorEm.exit: ; preds = %14, %18
  %19 = load ptr, ptr %0, align 8
  %20 = tail call noundef i64 @_ZNK4llvm15SmallVectorBaseIjE4sizeEv(ptr noundef nonnull align 8 dereferenceable(16) %0) #21
  %21 = getelementptr inbounds i64, ptr %19, i64 %20
  store i64 %2, ptr %21, align 1
  %22 = tail call noundef i64 @_ZNK4llvm15SmallVectorBaseIjE4sizeEv(ptr noundef nonnull align 8 dereferenceable(16) %0) #21
  %23 = add i64 %22, 1
  tail call void @_ZN4llvm15SmallVectorBaseIjE8set_sizeEm(ptr noundef nonnull align 8 dereferenceable(16) %0, i64 noundef %23) #21
  br label %24

24:                                               ; preds = %_ZN12_GLOBAL__N_119SCEVDbgValueBuilder12pushOperatorEm.exit, %10
  %25 = add i32 %.01319, 1
  %26 = getelementptr inbounds i8, ptr %.01418, i64 8
  %.not = icmp eq ptr %26, %8
  br i1 %.not, label %._crit_edge, label %10

._crit_edge:                                      ; preds = %24, %3
  %.0.lcssa = phi i1 [ true, %3 ], [ %13, %24 ]
  ret i1 %.0.lcssa
}